; Function Attrs: mustprogress uwtable
define noundef ptr @ures_getUTF8String_75(ptr noundef readonly %resB, ptr noundef %dest, ptr noundef %pLength, i8 noundef signext %forceCopy, ptr noundef %status) local_unnamed_addr #1 {
entry:
  %length16 = alloca i32, align 4
  %cmp.i = icmp eq ptr %status, null
  br i1 %cmp.i, label %ures_getString_75.exit, label %lor.lhs.false.i

lor.lhs.false.i:                                  ; preds = %entry
  %0 = load i32, ptr %status, align 4
  %cmp.i.i = icmp slt i32 %0, 1
  br i1 %cmp.i.i, label %if.end.i, label %ures_getString_75.exit

if.end.i:                                         ; preds = %lor.lhs.false.i
  %cmp1.i = icmp eq ptr %resB, null
  br i1 %cmp1.i, label %return.sink.split.i, label %if.end3.i

if.end3.i:                                        ; preds = %if.end.i
  %fData.i.i = getelementptr inbounds i8, ptr %resB, i64 8
  %1 = load ptr, ptr %fData.i.i, align 8
  %fData2.i.i = getelementptr inbounds i8, ptr %1, i64 40
  %fRes.i = getelementptr inbounds i8, ptr %resB, i64 108
  %2 = load i32, ptr %fRes.i, align 4
  %call.i.i = call noundef ptr @res_getStringNoTrace_75(ptr noundef nonnull %fData2.i.i, i32 noundef %2, ptr noundef nonnull %length16)
  %cmp6.i = icmp eq ptr %call.i.i, null
  br i1 %cmp6.i, label %return.sink.split.i, label %ures_getString_75.exit

return.sink.split.i:                              ; preds = %if.end3.i, %if.end.i
  %.sink.i = phi i32 [ 1, %if.end.i ], [ 17, %if.end3.i ]
  store i32 %.sink.i, ptr %status, align 4
  br label %ures_getString_75.exit

ures_getString_75.exit:                           ; preds = %entry, %lor.lhs.false.i, %if.end3.i, %return.sink.split.i
  %retval.0.i = phi ptr [ null, %lor.lhs.false.i ], [ null, %entry ], [ %call.i.i, %if.end3.i ], [ null, %return.sink.split.i ]
  %3 = load i32, ptr %length16, align 4
  %call1 = call fastcc noundef ptr @_ZL17ures_toUTF8StringPKDsiPcPiaP10UErrorCode(ptr noundef %retval.0.i, i32 noundef %3, ptr noundef %dest, ptr noundef %pLength, i8 noundef signext %forceCopy, ptr noundef %status)
  ret ptr %call1
}